Certificate:
    Data:
        Version: 3 (0x2)
        Serial Number: 1 (0x1)
    Signature Algorithm: sha1WithRSAEncryption
        Issuer: O=sympa developpers, OU=unit testing, CN=Test CA/emailAddress=test@sympa.org
        Validity
            Not Before: Feb 25 17:11:04 2013 GMT
            Not After : Feb 23 17:11:04 2023 GMT
        Subject: O=sympa developpers, OU=unit testing, CN=Guillaume Rousse/emailAddress=Guillaume.Rousse@sympa.org
        Subject Public Key Info:
            Public Key Algorithm: rsaEncryption
                Public-Key: (2048 bit)
                Modulus:
                    00:e0:86:95:6d:51:e5:f8:2f:af:eb:95:81:3f:68:
                    46:c6:9b:32:65:e6:ba:aa:24:a3:e5:08:63:b9:85:
                    0c:02:17:ec:1b:b3:53:41:c2:ac:cc:8a:63:0d:b6:
                    c0:2b:dd:ec:75:17:a0:97:1a:c8:3b:2d:aa:0b:78:
                    ff:5a:cf:0a:63:16:e7:aa:8b:54:95:3d:18:aa:93:
                    f3:34:34:d8:c0:41:09:66:e4:6e:06:87:3e:39:aa:
                    9b:f2:83:fd:22:ea:c1:67:56:0b:d2:68:9e:6f:e9:
                    72:eb:a4:14:7f:0e:e3:b3:be:78:bb:d3:57:b6:4e:
                    a3:bf:ae:0d:05:43:3b:63:39:33:46:29:1f:8b:81:
                    f8:84:cf:9e:f3:51:8a:49:90:6f:95:d3:0f:be:e1:
                    58:f1:b5:67:96:e1:2f:51:85:e1:35:e3:17:08:c2:
                    c4:bf:11:9a:0e:05:4c:ae:47:d5:01:31:b9:b0:38:
                    5a:99:6d:b9:dc:97:18:58:e0:e7:f0:66:43:b7:b9:
                    c1:d4:2e:b9:09:a1:d7:5d:37:7f:a8:ab:97:8b:0e:
                    d9:0b:b0:5a:13:f7:4b:71:c1:53:b6:0f:b4:a2:b2:
                    aa:4c:ff:2b:36:bb:0d:95:5f:54:92:f7:91:fe:44:
                    c7:c9:00:6e:77:be:a8:41:53:65:88:5c:c2:98:8b:
                    89:19
                Exponent: 65537 (0x10001)
        X509v3 extensions:
            X509v3 Basic Constraints: 
                CA:FALSE
            X509v3 Subject Key Identifier: 
                40:F6:F1:6B:F1:6B:A9:31:19:86:F3:DE:4A:BE:C3:3E:B4:E9:B2:0C
            X509v3 Key Usage: 
                Digital Signature, Key Encipherment
            X509v3 Extended Key Usage: 
                TLS Web Client Authentication, E-mail Protection
            X509v3 Subject Alternative Name: 
                email:Guillaume.Rousse@sympa.org
    Signature Algorithm: sha1WithRSAEncryption
         22:c6:90:36:1e:03:a8:71:96:3d:d0:ec:7a:7e:f6:f4:cd:62:
         27:5d:2f:9d:38:41:27:25:43:54:0b:89:57:2b:46:6b:13:8f:
         4b:0b:1f:11:86:ee:fd:b7:56:3b:3a:85:c2:18:2c:12:dd:00:
         0f:66:0a:6f:65:9b:8d:11:49:92:16:ab:50:ff:66:45:d7:07:
         e7:be:33:d7:f4:a3:d9:90:a7:1a:69:3c:00:e1:6d:9b:a0:b5:
         16:74:dd:8f:01:92:38:0e:88:d1:50:09:3b:74:9f:6c:d0:52:
         00:09:75:6f:92:26:9c:d2:b9:81:22:b4:46:7d:47:42:a3:09:
         44:2a:96:d6:3e:7e:94:ee:8f:2d:5e:b0:38:c0:c8:6a:e2:c4:
         0b:c3:53:b5:b8:5f:18:2b:4f:99:87:44:03:27:48:98:05:ea:
         25:99:05:7b:f1:b5:36:c8:b8:cd:89:bb:18:ff:d9:4b:6f:67:
         20:4b:d4:03:e6:0e:55:df:f5:c7:85:9d:39:b4:32:7d:b8:6d:
         cb:ee:61:c3:18:8f:66:30:db:c0:49:f2:e2:03:5a:32:a3:23:
         a6:8d:ec:a3:4f:03:a4:06:80:f4:f4:2a:f0:44:8c:05:02:d0:
         d4:0a:08:9d:94:3f:e2:35:ce:d6:6f:f4:cd:40:40:d3:dd:2e:
         27:39:e5:f4
-----BEGIN CERTIFICATE-----
MIID1zCCAr+gAwIBAgIBATANBgkqhkiG9w0BAQUFADBkMRowGAYDVQQKExFzeW1w
YSBkZXZlbG9wcGVyczEVMBMGA1UECxMMdW5pdCB0ZXN0aW5nMRAwDgYDVQQDEwdU
ZXN0IENBMR0wGwYJKoZIhvcNAQkBFg50ZXN0QHN5bXBhLm9yZzAeFw0xMzAyMjUx
NzExMDRaFw0yMzAyMjMxNzExMDRaMHkxGjAYBgNVBAoTEXN5bXBhIGRldmVsb3Bw
ZXJzMRUwEwYDVQQLEwx1bml0IHRlc3RpbmcxGTAXBgNVBAMTEEd1aWxsYXVtZSBS
b3Vzc2UxKTAnBgkqhkiG9w0BCQEWGkd1aWxsYXVtZS5Sb3Vzc2VAc3ltcGEub3Jn
MIIBIjANBgkqhkiG9w0BAQEFAAOCAQ8AMIIBCgKCAQEA4IaVbVHl+C+v65WBP2hG
xpsyZea6qiSj5QhjuYUMAhfsG7NTQcKszIpjDbbAK93sdReglxrIOy2qC3j/Ws8K
YxbnqotUlT0YqpPzNDTYwEEJZuRuBoc+Oaqb8oP9IurBZ1YL0mieb+ly66QUfw7j
s754u9NXtk6jv64NBUM7YzkzRikfi4H4hM+e81GKSZBvldMPvuFY8bVnluEvUYXh
NeMXCMLEvxGaDgVMrkfVATG5sDhamW253JcYWODn8GZDt7nB1C65CaHXXTd/qKuX
iw7ZC7BaE/dLccFTtg+0orKqTP8rNrsNlV9UkveR/kTHyQBud76oQVNliFzCmIuJ
GQIDAQABo38wfTAJBgNVHRMEAjAAMB0GA1UdDgQWBBRA9vFr8WupMRmG895KvsM+
tOmyDDALBgNVHQ8EBAMCBaAwHQYDVR0lBBYwFAYIKwYBBQUHAwIGCCsGAQUFBwME
MCUGA1UdEQQeMByBGkd1aWxsYXVtZS5Sb3Vzc2VAc3ltcGEub3JnMA0GCSqGSIb3
DQEBBQUAA4IBAQAixpA2HgOocZY90Ox6fvb0zWInXS+dOEEnJUNUC4lXK0ZrE49L
Cx8Rhu79t1Y7OoXCGCwS3QAPZgpvZZuNEUmSFqtQ/2ZF1wfnvjPX9KPZkKcaaTwA
4W2boLUWdN2PAZI4DojRUAk7dJ9s0FIACXVvkiac0rmBIrRGfUdCowlEKpbWPn6U
7o8tXrA4wMhq4sQLw1O1uF8YK0+Zh0QDJ0iYBeolmQV78bU2yLjNibsY/9lLb2cg
S9QD5g5V3/XHhZ05tDJ9uG3L7mHDGI9mMNvASfLiA1oyoyOmjeyjTwOkBoD09Crw
RIwFAtDUCgidlD/iNc7Wb/TNQEDT3S4nOeX0
-----END CERTIFICATE-----
